target datalayout = "e-m:e-p270:32:32-p271:32:32-p272:64:64-i64:64-i128:128-f80:128-n8:16:32:64-S128"
target triple = "x86_64-pc-linux-gnu"

%"class.bit_matrix::row" = type { ptr, ptr }
%class.bit_matrix = type { %class.region, i32, i32, %class.ptr_vector }
%class.region = type { ptr, ptr, ptr, ptr, ptr }
%class.ptr_vector = type { %class.vector }
%class.vector = type { ptr }
%"class.bit_matrix::row_iterator" = type <{ %"class.bit_matrix::row", i32, [4 x i8] }>
%"class.std::ios_base" = type { ptr, i64, i64, i32, i32, i32, ptr, %"struct.std::ios_base::_Words", [8 x %"struct.std::ios_base::_Words"], i32, ptr, %"class.std::locale" }
%"struct.std::ios_base::_Words" = type { ptr, i64 }
%"class.std::locale" = type { ptr }

@.str = private unnamed_addr constant [2 x i8] c"1\00", align 1
@.str.1 = private unnamed_addr constant [2 x i8] c"0\00", align 1
@.str.2 = private unnamed_addr constant [2 x i8] c"\0A\00", align 1

; Function Attrs: inlinehint mustprogress nounwind uwtable
define linkonce_odr noundef i32 @_ZStorSt12_Ios_IostateS_(i32 noundef %0, i32 noundef %1) #12 comdat {
  %3 = alloca i32, align 4
  %4 = alloca i32, align 4
  store i32 %0, ptr %3, align 4, !tbaa !114
  store i32 %1, ptr %4, align 4, !tbaa !114
  %5 = load i32, ptr %3, align 4, !tbaa !114
  %6 = load i32, ptr %4, align 4, !tbaa !114
  %7 = or i32 %5, %6
  ret i32 %7
}

; Function Attrs: mustprogress nounwind uwtable
define available_externally noundef i32 @_ZNKSt9basic_iosIcSt11char_traitsIcEE7rdstateEv(ptr noundef nonnull align 8 dereferenceable(264) %0) #5 align 2 {
  %2 = alloca ptr, align 8
  store ptr %0, ptr %2, align 8, !tbaa !112
  %3 = load ptr, ptr %2, align 8
  %4 = getelementptr inbounds nuw %"class.std::ios_base", ptr %3, i32 0, i32 5
  %5 = load i32, ptr %4, align 8, !tbaa !115
  ret i32 %5
}

; Function Attrs: mustprogress nounwind uwtable
define linkonce_odr hidden noundef i64 @_ZNSt11char_traitsIcE6lengthEPKc(ptr noundef %0) #5 comdat align 2 {
  %2 = alloca ptr, align 8
  store ptr %0, ptr %2, align 8, !tbaa !45
  %3 = load ptr, ptr %2, align 8, !tbaa !45
  %4 = call i64 @strlen(ptr noundef %3) #3
  ret i64 %4
}

; Function Attrs: mustprogress uwtable
define available_externally void @_ZNSt9basic_iosIcSt11char_traitsIcEE8setstateESt12_Ios_Iostate(ptr noundef nonnull align 8 dereferenceable(264) %0, i32 noundef %1) #4 align 2 {
  %3 = alloca ptr, align 8
  %4 = alloca i32, align 4
  store ptr %0, ptr %3, align 8, !tbaa !112
  store i32 %1, ptr %4, align 4, !tbaa !114
  %5 = load ptr, ptr %3, align 8
  %6 = call noundef i32 @_ZNKSt9basic_iosIcSt11char_traitsIcEE7rdstateEv(ptr noundef nonnull align 8 dereferenceable(264) %5)
  %7 = load i32, ptr %4, align 4, !tbaa !114
  %8 = call noundef i32 @_ZStorSt12_Ios_IostateS_(i32 noundef %6, i32 noundef %7)
  call void @_ZNSt9basic_iosIcSt11char_traitsIcEE5clearESt12_Ios_Iostate(ptr noundef nonnull align 8 dereferenceable(264) %5, i32 noundef %8)
  ret void
}

; Function Attrs: inlinehint mustprogress uwtable
define available_externally noundef nonnull align 8 dereferenceable(8) ptr @_ZStlsISt11char_traitsIcEERSt13basic_ostreamIcT_ES5_PKc(ptr noundef nonnull align 8 dereferenceable(8) %0, ptr noundef %1) #7 {
  %3 = alloca ptr, align 8
  %4 = alloca ptr, align 8
  store ptr %0, ptr %3, align 8, !tbaa !42
  store ptr %1, ptr %4, align 8, !tbaa !45
  %5 = load ptr, ptr %4, align 8, !tbaa !45
  %6 = icmp ne ptr %5, null
  br i1 %6, label %13, label %7

7:                                                ; preds = %2
  %8 = load ptr, ptr %3, align 8, !tbaa !42
  %9 = load ptr, ptr %8, align 8, !tbaa !46
  %10 = getelementptr i8, ptr %9, i64 -24
  %11 = load i64, ptr %10, align 8
  %12 = getelementptr inbounds i8, ptr %8, i64 %11
  call void @_ZNSt9basic_iosIcSt11char_traitsIcEE8setstateESt12_Ios_Iostate(ptr noundef nonnull align 8 dereferenceable(264) %12, i32 noundef 1)
  br label %19

13:                                               ; preds = %2
  %14 = load ptr, ptr %3, align 8, !tbaa !42
  %15 = load ptr, ptr %4, align 8, !tbaa !45
  %16 = load ptr, ptr %4, align 8, !tbaa !45
  %17 = call noundef i64 @_ZNSt11char_traitsIcE6lengthEPKc(ptr noundef %16)
  %18 = call noundef nonnull align 8 dereferenceable(8) ptr @_ZSt16__ostream_insertIcSt11char_traitsIcEERSt13basic_ostreamIT_T0_ES6_PKS3_l(ptr noundef nonnull align 8 dereferenceable(8) %14, ptr noundef %15, i64 noundef %17)
  br label %19

19:                                               ; preds = %13, %7
  %20 = load ptr, ptr %3, align 8, !tbaa !42
  ret ptr %20
}

; Function Attrs: mustprogress nounwind uwtable
define hidden noundef zeroext i1 @_ZNK10bit_matrix3rowixEj(ptr noundef nonnull align 8 dereferenceable(16) %0, i32 noundef %1) #5 align 2 {
  %3 = alloca ptr, align 8
  %4 = alloca i32, align 4
  store ptr %0, ptr %3, align 8, !tbaa !3
  store i32 %1, ptr %4, align 4, !tbaa !40
  %5 = load ptr, ptr %3, align 8
  %6 = getelementptr inbounds nuw %"class.bit_matrix::row", ptr %5, i32 0, i32 1
  %7 = load ptr, ptr %6, align 8, !tbaa !41
  %8 = load i32, ptr %4, align 4, !tbaa !40
  %9 = lshr i32 %8, 6
  %10 = zext i32 %9 to i64
  %11 = getelementptr inbounds nuw i64, ptr %7, i64 %10
  %12 = load i64, ptr %11, align 8, !tbaa !35
  %13 = load i32, ptr %4, align 4, !tbaa !40
  %14 = and i32 %13, 63
  %15 = zext i32 %14 to i64
  %16 = shl i64 1, %15
  %17 = and i64 %12, %16
  %18 = icmp ne i64 %17, 0
  ret i1 %18
}

; Function Attrs: mustprogress nounwind uwtable
define linkonce_odr hidden noundef i32 @_ZNK6vectorIPmLb0EjE4sizeEv(ptr noundef nonnull align 8 dereferenceable(8) %0) #5 comdat align 2 {
  %2 = alloca i32, align 4
  %3 = alloca ptr, align 8
  store ptr %0, ptr %3, align 8, !tbaa !49
  %4 = load ptr, ptr %3, align 8
  %5 = getelementptr inbounds nuw %class.vector, ptr %4, i32 0, i32 0
  %6 = load ptr, ptr %5, align 8, !tbaa !51
  %7 = icmp eq ptr %6, null
  br i1 %7, label %8, label %9

8:                                                ; preds = %1
  store i32 0, ptr %2, align 4
  br label %14

9:                                                ; preds = %1
  %10 = getelementptr inbounds nuw %class.vector, ptr %4, i32 0, i32 0
  %11 = load ptr, ptr %10, align 8, !tbaa !51
  %12 = getelementptr inbounds i32, ptr %11, i64 -1
  %13 = load i32, ptr %12, align 4, !tbaa !40
  store i32 %13, ptr %2, align 4
  br label %14

14:                                               ; preds = %9, %8
  %15 = load i32, ptr %2, align 4
  ret i32 %15
}

; Function Attrs: mustprogress nounwind uwtable
define linkonce_odr hidden void @_ZN10bit_matrix3rowC2ERS_Pm(ptr noundef nonnull align 8 dereferenceable(16) %0, ptr noundef nonnull align 8 dereferenceable(56) %1, ptr noundef %2) unnamed_addr #5 comdat align 2 {
  %4 = alloca ptr, align 8
  %5 = alloca ptr, align 8
  %6 = alloca ptr, align 8
  store ptr %0, ptr %4, align 8, !tbaa !3
  store ptr %1, ptr %5, align 8, !tbaa !13
  store ptr %2, ptr %6, align 8, !tbaa !15
  %7 = load ptr, ptr %4, align 8
  %8 = getelementptr inbounds nuw %"class.bit_matrix::row", ptr %7, i32 0, i32 0
  %9 = load ptr, ptr %5, align 8, !tbaa !13
  store ptr %9, ptr %8, align 8, !tbaa !13
  %10 = getelementptr inbounds nuw %"class.bit_matrix::row", ptr %7, i32 0, i32 1
  %11 = load ptr, ptr %6, align 8, !tbaa !15
  store ptr %11, ptr %10, align 8, !tbaa !41
  ret void
}

; Function Attrs: mustprogress nounwind uwtable
define linkonce_odr hidden noundef nonnull align 8 dereferenceable(8) ptr @_ZN6vectorIPmLb0EjEixEj(ptr noundef nonnull align 8 dereferenceable(8) %0, i32 noundef %1) #5 comdat align 2 {
  %3 = alloca ptr, align 8
  %4 = alloca i32, align 4
  store ptr %0, ptr %3, align 8, !tbaa !49
  store i32 %1, ptr %4, align 4, !tbaa !40
  %5 = load ptr, ptr %3, align 8
  %6 = getelementptr inbounds nuw %class.vector, ptr %5, i32 0, i32 0
  %7 = load ptr, ptr %6, align 8, !tbaa !51
  %8 = load i32, ptr %4, align 4, !tbaa !40
  %9 = zext i32 %8 to i64
  %10 = getelementptr inbounds nuw ptr, ptr %7, i64 %9
  ret ptr %10
}

; Function Attrs: mustprogress nounwind uwtable
define linkonce_odr hidden void @_ZN10bit_matrix12row_iterator4nextEv(ptr noundef nonnull align 8 dereferenceable(20) %0) #5 comdat align 2 {
  %2 = alloca ptr, align 8
  store ptr %0, ptr %2, align 8, !tbaa !58
  %3 = load ptr, ptr %2, align 8
  %4 = getelementptr inbounds nuw %"class.bit_matrix::row_iterator", ptr %3, i32 0, i32 1
  %5 = load i32, ptr %4, align 8, !tbaa !60
  %6 = add i32 %5, 1
  store i32 %6, ptr %4, align 8, !tbaa !60
  %7 = getelementptr inbounds nuw %"class.bit_matrix::row_iterator", ptr %3, i32 0, i32 1
  %8 = load i32, ptr %7, align 8, !tbaa !60
  %9 = getelementptr inbounds nuw %"class.bit_matrix::row_iterator", ptr %3, i32 0, i32 0
  %10 = getelementptr inbounds nuw %"class.bit_matrix::row", ptr %9, i32 0, i32 0
  %11 = load ptr, ptr %10, align 8, !tbaa !86
  %12 = getelementptr inbounds nuw %class.bit_matrix, ptr %11, i32 0, i32 3
  %13 = call noundef i32 @_ZNK6vectorIPmLb0EjE4sizeEv(ptr noundef nonnull align 8 dereferenceable(8) %12)
  %14 = icmp ult i32 %8, %13
  br i1 %14, label %15, label %26

15:                                               ; preds = %1
  %16 = getelementptr inbounds nuw %"class.bit_matrix::row_iterator", ptr %3, i32 0, i32 0
  %17 = getelementptr inbounds nuw %"class.bit_matrix::row", ptr %16, i32 0, i32 0
  %18 = load ptr, ptr %17, align 8, !tbaa !86
  %19 = getelementptr inbounds nuw %class.bit_matrix, ptr %18, i32 0, i32 3
  %20 = getelementptr inbounds nuw %"class.bit_matrix::row_iterator", ptr %3, i32 0, i32 1
  %21 = load i32, ptr %20, align 8, !tbaa !60
  %22 = call noundef nonnull align 8 dereferenceable(8) ptr @_ZN6vectorIPmLb0EjEixEj(ptr noundef nonnull align 8 dereferenceable(8) %19, i32 noundef %21)
  %23 = load ptr, ptr %22, align 8, !tbaa !15
  %24 = getelementptr inbounds nuw %"class.bit_matrix::row_iterator", ptr %3, i32 0, i32 0
  %25 = getelementptr inbounds nuw %"class.bit_matrix::row", ptr %24, i32 0, i32 1
  store ptr %23, ptr %25, align 8, !tbaa !87
  br label %26

26:                                               ; preds = %15, %1
  ret void
}

; Function Attrs: mustprogress uwtable
define hidden noundef nonnull align 8 dereferenceable(8) ptr @_ZNK10bit_matrix3row7displayERSo(ptr noundef nonnull align 8 dereferenceable(16) %0, ptr noundef nonnull align 8 dereferenceable(8) %1) #4 align 2 {
  %3 = alloca ptr, align 8
  %4 = alloca ptr, align 8
  %5 = alloca i32, align 4
  store ptr %0, ptr %3, align 8, !tbaa !3
  store ptr %1, ptr %4, align 8, !tbaa !42
  %6 = load ptr, ptr %3, align 8
  call void @llvm.lifetime.start.p0(i64 4, ptr %5) #3
  store i32 0, ptr %5, align 4, !tbaa !40
  br label %7

7:                                                ; preds = %25, %2
  %8 = load i32, ptr %5, align 4, !tbaa !40
  %9 = getelementptr inbounds nuw %"class.bit_matrix::row", ptr %6, i32 0, i32 0
  %10 = load ptr, ptr %9, align 8, !tbaa !19
  %11 = getelementptr inbounds nuw %class.bit_matrix, ptr %10, i32 0, i32 1
  %12 = load i32, ptr %11, align 8, !tbaa !21
  %13 = icmp ult i32 %8, %12
  br i1 %13, label %15, label %14

14:                                               ; preds = %7
  call void @llvm.lifetime.end.p0(i64 4, ptr %5) #3
  br label %28

15:                                               ; preds = %7
  %16 = load ptr, ptr %4, align 8, !tbaa !42
  %17 = load i32, ptr %5, align 4, !tbaa !40
  %18 = call noundef zeroext i1 @_ZNK10bit_matrix3rowixEj(ptr noundef nonnull align 8 dereferenceable(16) %6, i32 noundef %17)
  br i1 %18, label %19, label %20

19:                                               ; preds = %15
  br label %21

20:                                               ; preds = %15
  br label %21

21:                                               ; preds = %20, %19
  %22 = phi ptr [ @.str, %19 ], [ @.str.1, %20 ]
  %23 = getelementptr inbounds [2 x i8], ptr %22, i64 0, i64 0
  %24 = call noundef nonnull align 8 dereferenceable(8) ptr @_ZStlsISt11char_traitsIcEERSt13basic_ostreamIcT_ES5_PKc(ptr noundef nonnull align 8 dereferenceable(8) %16, ptr noundef %23)
  br label %25

25:                                               ; preds = %21
  %26 = load i32, ptr %5, align 4, !tbaa !40
  %27 = add i32 %26, 1
  store i32 %27, ptr %5, align 4, !tbaa !40
  br label %7, !llvm.loop !44

28:                                               ; preds = %14
  %29 = load ptr, ptr %4, align 8, !tbaa !42
  %30 = call noundef nonnull align 8 dereferenceable(8) ptr @_ZStlsISt11char_traitsIcEERSt13basic_ostreamIcT_ES5_PKc(ptr noundef nonnull align 8 dereferenceable(8) %29, ptr noundef @.str.2)
  ret ptr %30
}

; Function Attrs: mustprogress uwtable
define linkonce_odr hidden void @_ZN10bit_matrix12row_iteratorC2ERS_b(ptr noundef nonnull align 8 dereferenceable(20) %0, ptr noundef nonnull align 8 dereferenceable(56) %1, i1 noundef zeroext %2) unnamed_addr #4 comdat align 2 {
  %4 = alloca ptr, align 8
  %5 = alloca ptr, align 8
  %6 = alloca i8, align 1
  store ptr %0, ptr %4, align 8, !tbaa !58
  store ptr %1, ptr %5, align 8, !tbaa !13
  %7 = zext i1 %2 to i8
  store i8 %7, ptr %6, align 1, !tbaa !10
  %8 = load ptr, ptr %4, align 8
  %9 = getelementptr inbounds nuw %"class.bit_matrix::row_iterator", ptr %8, i32 0, i32 0
  %10 = load ptr, ptr %5, align 8, !tbaa !13
  %11 = load i8, ptr %6, align 1, !tbaa !10, !range !17, !noundef !18
  %12 = trunc i8 %11 to i1
  br i1 %12, label %13, label %18

13:                                               ; preds = %3
  %14 = load ptr, ptr %5, align 8, !tbaa !13
  %15 = getelementptr inbounds nuw %class.bit_matrix, ptr %14, i32 0, i32 3
  %16 = call noundef nonnull align 8 dereferenceable(8) ptr @_ZN6vectorIPmLb0EjEixEj(ptr noundef nonnull align 8 dereferenceable(8) %15, i32 noundef 0)
  %17 = load ptr, ptr %16, align 8, !tbaa !15
  br label %19

18:                                               ; preds = %3
  br label %19

19:                                               ; preds = %18, %13
  %20 = phi ptr [ %17, %13 ], [ null, %18 ]
  call void @_ZN10bit_matrix3rowC2ERS_Pm(ptr noundef nonnull align 8 dereferenceable(16) %9, ptr noundef nonnull align 8 dereferenceable(56) %10, ptr noundef %20)
  %21 = getelementptr inbounds nuw %"class.bit_matrix::row_iterator", ptr %8, i32 0, i32 1
  %22 = load i8, ptr %6, align 1, !tbaa !10, !range !17, !noundef !18
  %23 = trunc i8 %22 to i1
  br i1 %23, label %24, label %25

24:                                               ; preds = %19
  br label %29

25:                                               ; preds = %19
  %26 = load ptr, ptr %5, align 8, !tbaa !13
  %27 = getelementptr inbounds nuw %class.bit_matrix, ptr %26, i32 0, i32 3
  %28 = call noundef i32 @_ZNK6vectorIPmLb0EjE4sizeEv(ptr noundef nonnull align 8 dereferenceable(8) %27)
  br label %29

29:                                               ; preds = %25, %24
  %30 = phi i32 [ 0, %24 ], [ %28, %25 ]
  store i32 %30, ptr %21, align 8, !tbaa !60
  ret void
}

; Function Attrs: mustprogress uwtable
define linkonce_odr hidden noundef nonnull align 8 dereferenceable(20) ptr @_ZN10bit_matrix12row_iteratorppEv(ptr noundef nonnull align 8 dereferenceable(20) %0) #4 comdat align 2 {
  %2 = alloca ptr, align 8
  store ptr %0, ptr %2, align 8, !tbaa !58
  %3 = load ptr, ptr %2, align 8
  call void @_ZN10bit_matrix12row_iterator4nextEv(ptr noundef nonnull align 8 dereferenceable(20) %3)
  ret ptr %3
}

; Function Attrs: inlinehint mustprogress uwtable
define linkonce_odr hidden noundef nonnull align 8 dereferenceable(8) ptr @_ZlsRSoRKN10bit_matrix3rowE(ptr noundef nonnull align 8 dereferenceable(8) %0, ptr noundef nonnull align 8 dereferenceable(16) %1) #7 comdat {
  %3 = alloca ptr, align 8
  %4 = alloca ptr, align 8
  store ptr %0, ptr %3, align 8, !tbaa !42
  store ptr %1, ptr %4, align 8, !tbaa !3
  %5 = load ptr, ptr %4, align 8, !tbaa !3
  %6 = load ptr, ptr %3, align 8, !tbaa !42
  %7 = call noundef nonnull align 8 dereferenceable(8) ptr @_ZNK10bit_matrix3row7displayERSo(ptr noundef nonnull align 8 dereferenceable(16) %5, ptr noundef nonnull align 8 dereferenceable(8) %6)
  ret ptr %7
}

; Function Attrs: mustprogress nounwind uwtable
define linkonce_odr hidden noundef nonnull align 8 dereferenceable(16) ptr @_ZN10bit_matrix12row_iteratordeEv(ptr noundef nonnull align 8 dereferenceable(20) %0) #5 comdat align 2 {
  %2 = alloca ptr, align 8
  store ptr %0, ptr %2, align 8, !tbaa !58
  %3 = load ptr, ptr %2, align 8
  %4 = getelementptr inbounds nuw %"class.bit_matrix::row_iterator", ptr %3, i32 0, i32 0
  ret ptr %4
}

; Function Attrs: mustprogress nounwind uwtable
define linkonce_odr hidden noundef zeroext i1 @_ZNK10bit_matrix12row_iteratorneERKS0_(ptr noundef nonnull align 8 dereferenceable(20) %0, ptr noundef nonnull align 8 dereferenceable(20) %1) #5 comdat align 2 {
  %3 = alloca ptr, align 8
  %4 = alloca ptr, align 8
  store ptr %0, ptr %3, align 8, !tbaa !58
  store ptr %1, ptr %4, align 8, !tbaa !58
  %5 = load ptr, ptr %3, align 8
  %6 = getelementptr inbounds nuw %"class.bit_matrix::row_iterator", ptr %5, i32 0, i32 1
  %7 = load i32, ptr %6, align 8, !tbaa !60
  %8 = load ptr, ptr %4, align 8, !tbaa !58
  %9 = getelementptr inbounds nuw %"class.bit_matrix::row_iterator", ptr %8, i32 0, i32 1
  %10 = load i32, ptr %9, align 8, !tbaa !60
  %11 = icmp ne i32 %7, %10
  ret i1 %11
}

; Function Attrs: mustprogress uwtable
define linkonce_odr hidden void @_ZN10bit_matrix3endEv(ptr dead_on_unwind noalias writable sret(%"class.bit_matrix::row_iterator") align 8 %0, ptr noundef nonnull align 8 dereferenceable(56) %1) #4 comdat align 2 {
  %3 = alloca ptr, align 8
  store ptr %1, ptr %3, align 8, !tbaa !13
  %4 = load ptr, ptr %3, align 8
  call void @_ZN10bit_matrix12row_iteratorC2ERS_b(ptr noundef nonnull align 8 dereferenceable(20) %0, ptr noundef nonnull align 8 dereferenceable(56) %4, i1 noundef zeroext false)
  ret void
}

; Function Attrs: mustprogress uwtable
define linkonce_odr hidden void @_ZN10bit_matrix5beginEv(ptr dead_on_unwind noalias writable sret(%"class.bit_matrix::row_iterator") align 8 %0, ptr noundef nonnull align 8 dereferenceable(56) %1) #4 comdat align 2 {
  %3 = alloca ptr, align 8
  store ptr %1, ptr %3, align 8, !tbaa !13
  %4 = load ptr, ptr %3, align 8
  call void @_ZN10bit_matrix12row_iteratorC2ERS_b(ptr noundef nonnull align 8 dereferenceable(20) %0, ptr noundef nonnull align 8 dereferenceable(56) %4, i1 noundef zeroext true)
  ret void
}

; Function Attrs: mustprogress uwtable
define hidden noundef nonnull align 8 dereferenceable(8) ptr @_ZN10bit_matrix7displayERSo(ptr noundef nonnull align 8 dereferenceable(56) %0, ptr noundef nonnull align 8 dereferenceable(8) %1) #4 align 2 {
  %3 = alloca ptr, align 8
  %4 = alloca ptr, align 8
  %5 = alloca ptr, align 8
  %6 = alloca %"class.bit_matrix::row_iterator", align 8
  %7 = alloca %"class.bit_matrix::row_iterator", align 8
  %8 = alloca ptr, align 8
  store ptr %0, ptr %3, align 8, !tbaa !13
  store ptr %1, ptr %4, align 8, !tbaa !42
  %9 = load ptr, ptr %3, align 8
  call void @llvm.lifetime.start.p0(i64 8, ptr %5) #3
  store ptr %9, ptr %5, align 8, !tbaa !13
  call void @llvm.lifetime.start.p0(i64 24, ptr %6) #3
  %10 = load ptr, ptr %5, align 8, !tbaa !13
  call void @_ZN10bit_matrix5beginEv(ptr dead_on_unwind writable sret(%"class.bit_matrix::row_iterator") align 8 %6, ptr noundef nonnull align 8 dereferenceable(56) %10)
  call void @llvm.lifetime.start.p0(i64 24, ptr %7) #3
  %11 = load ptr, ptr %5, align 8, !tbaa !13
  call void @_ZN10bit_matrix3endEv(ptr dead_on_unwind writable sret(%"class.bit_matrix::row_iterator") align 8 %7, ptr noundef nonnull align 8 dereferenceable(56) %11)
  br label %12

12:                                               ; preds = %20, %2
  %13 = call noundef zeroext i1 @_ZNK10bit_matrix12row_iteratorneERKS0_(ptr noundef nonnull align 8 dereferenceable(20) %6, ptr noundef nonnull align 8 dereferenceable(20) %7)
  br i1 %13, label %15, label %14

14:                                               ; preds = %12
  call void @llvm.lifetime.end.p0(i64 24, ptr %7) #3
  call void @llvm.lifetime.end.p0(i64 24, ptr %6) #3
  call void @llvm.lifetime.end.p0(i64 8, ptr %5) #3
  br label %22

15:                                               ; preds = %12
  call void @llvm.lifetime.start.p0(i64 8, ptr %8) #3
  %16 = call noundef nonnull align 8 dereferenceable(16) ptr @_ZN10bit_matrix12row_iteratordeEv(ptr noundef nonnull align 8 dereferenceable(20) %6)
  store ptr %16, ptr %8, align 8, !tbaa !3
  %17 = load ptr, ptr %4, align 8, !tbaa !42
  %18 = load ptr, ptr %8, align 8, !tbaa !3
  %19 = call noundef nonnull align 8 dereferenceable(8) ptr @_ZlsRSoRKN10bit_matrix3rowE(ptr noundef nonnull align 8 dereferenceable(8) %17, ptr noundef nonnull align 8 dereferenceable(16) %18)
  call void @llvm.lifetime.end.p0(i64 8, ptr %8) #3
  br label %20

20:                                               ; preds = %15
  %21 = call noundef nonnull align 8 dereferenceable(20) ptr @_ZN10bit_matrix12row_iteratorppEv(ptr noundef nonnull align 8 dereferenceable(20) %6)
  br label %12

22:                                               ; preds = %14
  %23 = load ptr, ptr %4, align 8, !tbaa !42
  ret ptr %23
}