; Function Attrs: mustprogress uwtable
define hidden noundef nonnull align 8 dereferenceable(8) ptr @_ZN10bit_matrix7displayERSo(ptr noundef nonnull readonly align 8 captures(none) dereferenceable(56) %0, ptr noundef nonnull returned align 8 dereferenceable(8) %1) local_unnamed_addr #6 align 2 {
_ZN10bit_matrix3endEv.exit:
  %2 = getelementptr inbounds nuw i8, ptr %0, i64 48
  %3 = load ptr, ptr %2, align 8, !tbaa !32, !noalias !71
  %4 = getelementptr inbounds i8, ptr %3, i64 -4
  %5 = load i32, ptr %4, align 4, !tbaa !33, !noalias !74
  %.not11 = icmp eq i32 %5, 0
  br i1 %.not11, label %._crit_edge, label %.lr.ph

.lr.ph:                                           ; preds = %_ZN10bit_matrix3endEv.exit
  %6 = load ptr, ptr %3, align 8, !tbaa !9, !noalias !71
  %7 = getelementptr inbounds nuw i8, ptr %0, i64 40
  %8 = zext i32 %5 to i64
  br label %9

._crit_edge:                                      ; preds = %_ZN10bit_matrix12row_iteratorppEv.exit, %_ZN10bit_matrix3endEv.exit
  ret ptr %1

9:                                                ; preds = %.lr.ph, %_ZN10bit_matrix12row_iteratorppEv.exit
  %indvars.iv = phi i64 [ 0, %.lr.ph ], [ %indvars.iv.next, %_ZN10bit_matrix12row_iteratorppEv.exit ]
  %.sroa.69.012 = phi ptr [ %6, %.lr.ph ], [ %.sroa.69.1, %_ZN10bit_matrix12row_iteratorppEv.exit ]
  %10 = load i32, ptr %7, align 8, !tbaa !19
  %.not6.i.i = icmp eq i32 %10, 0
  br i1 %.not6.i.i, label %_ZlsRSoRKN10bit_matrix3rowE.exit, label %.lr.ph.i.i

.lr.ph.i.i:                                       ; preds = %9, %.lr.ph.i.i
  %.05.i.i = phi i32 [ %20, %.lr.ph.i.i ], [ 0, %9 ]
  %11 = lshr i32 %.05.i.i, 6
  %12 = zext nneg i32 %11 to i64
  %13 = getelementptr inbounds nuw i64, ptr %.sroa.69.012, i64 %12
  %14 = load i64, ptr %13, align 8, !tbaa !16
  %15 = and i32 %.05.i.i, 63
  %16 = zext nneg i32 %15 to i64
  %17 = shl nuw i64 1, %16
  %18 = and i64 %17, %14
  %.not.i.i = icmp eq i64 %18, 0
  %.str..str.1.i.i = select i1 %.not.i.i, ptr @.str.1, ptr @.str
  %19 = tail call noundef nonnull align 8 dereferenceable(8) ptr @_ZSt16__ostream_insertIcSt11char_traitsIcEERSt13basic_ostreamIT_T0_ES6_PKS3_l(ptr noundef nonnull align 8 dereferenceable(8) %1, ptr noundef nonnull %.str..str.1.i.i, i64 noundef 1)
  %20 = add nuw i32 %.05.i.i, 1
  %21 = load i32, ptr %7, align 8, !tbaa !19
  %22 = icmp ult i32 %20, %21
  br i1 %22, label %.lr.ph.i.i, label %_ZlsRSoRKN10bit_matrix3rowE.exit, !llvm.loop !31

_ZlsRSoRKN10bit_matrix3rowE.exit:                 ; preds = %.lr.ph.i.i, %9
  %23 = tail call noundef nonnull align 8 dereferenceable(8) ptr @_ZSt16__ostream_insertIcSt11char_traitsIcEERSt13basic_ostreamIT_T0_ES6_PKS3_l(ptr noundef nonnull align 8 dereferenceable(8) %1, ptr noundef nonnull @.str.2, i64 noundef 1)
  %indvars.iv.next = add nuw nsw i64 %indvars.iv, 1
  %24 = load ptr, ptr %2, align 8, !tbaa !32
  %25 = icmp eq ptr %24, null
  br i1 %25, label %_ZN10bit_matrix12row_iteratorppEv.exit, label %_ZNK6vectorIPmLb0EjE4sizeEv.exit.i.i

_ZNK6vectorIPmLb0EjE4sizeEv.exit.i.i:             ; preds = %_ZlsRSoRKN10bit_matrix3rowE.exit
  %26 = getelementptr inbounds i8, ptr %24, i64 -4
  %27 = load i32, ptr %26, align 4, !tbaa !33
  %28 = zext i32 %27 to i64
  %29 = icmp samesign ult i64 %indvars.iv.next, %28
  br i1 %29, label %30, label %_ZN10bit_matrix12row_iteratorppEv.exit

30:                                               ; preds = %_ZNK6vectorIPmLb0EjE4sizeEv.exit.i.i
  %31 = getelementptr inbounds nuw ptr, ptr %24, i64 %indvars.iv.next
  %32 = load ptr, ptr %31, align 8, !tbaa !9
  br label %_ZN10bit_matrix12row_iteratorppEv.exit

_ZN10bit_matrix12row_iteratorppEv.exit:           ; preds = %_ZlsRSoRKN10bit_matrix3rowE.exit, %_ZNK6vectorIPmLb0EjE4sizeEv.exit.i.i, %30
  %.sroa.69.1 = phi ptr [ %.sroa.69.012, %_ZlsRSoRKN10bit_matrix3rowE.exit ], [ %32, %30 ], [ %.sroa.69.012, %_ZNK6vectorIPmLb0EjE4sizeEv.exit.i.i ]
  %.not = icmp eq i64 %indvars.iv.next, %8
  br i1 %.not, label %._crit_edge, label %9
}